; Function Attrs: nounwind uwtable
define internal void @cf_hc_close(ptr noundef %0, ptr noundef %1) #0 {
  %.not = icmp eq ptr %1, null
  br i1 %.not, label %22, label %3

3:                                                ; preds = %2
  %4 = getelementptr inbounds nuw i8, ptr %1, i64 2658
  %5 = load i64, ptr %4, align 2
  %6 = and i64 %5, 2147483648
  %.not20 = icmp eq i64 %6, 0
  br i1 %.not20, label %22, label %7

7:                                                ; preds = %3
  %8 = getelementptr inbounds nuw i8, ptr %1, i64 4864
  %9 = load ptr, ptr %8, align 8, !tbaa !12
  %.not21 = icmp eq ptr %9, null
  br i1 %.not21, label %15, label %10

10:                                               ; preds = %7
  %11 = getelementptr inbounds nuw i8, ptr %9, i64 8
  %12 = load i32, ptr %11, align 8, !tbaa !79
  %13 = icmp sgt i32 %12, 0
  %14 = icmp ne ptr %0, null
  %or.cond = and i1 %14, %13
  br i1 %or.cond, label %16, label %22

15:                                               ; preds = %7
  %.old1.not = icmp eq ptr %0, null
  br i1 %.old1.not, label %22, label %16

16:                                               ; preds = %10, %15
  %17 = load ptr, ptr %0, align 8, !tbaa !81
  %18 = getelementptr inbounds nuw i8, ptr %17, i64 12
  %19 = load i32, ptr %18, align 4, !tbaa !82
  %20 = icmp sgt i32 %19, 0
  br i1 %20, label %21, label %22

21:                                               ; preds = %16
  tail call void (ptr, ptr, ptr, ...) @Curl_trc_cf_infof(ptr noundef nonnull %1, ptr noundef nonnull %0, ptr noundef nonnull @.str.12) #4
  br label %22

22:                                               ; preds = %2, %3, %10, %15, %16, %21
  %23 = getelementptr i8, ptr %0, i64 16
  %.val = load ptr, ptr %23, align 8, !tbaa !3
  %.not.i = icmp eq ptr %.val, null
  br i1 %.not.i, label %cf_hc_reset.exit, label %.preheader.i

.preheader.i:                                     ; preds = %22
  %24 = getelementptr inbounds nuw i8, ptr %.val, i64 152
  %25 = load i64, ptr %24, align 8, !tbaa !84
  %.not2.i = icmp eq i64 %25, 0
  br i1 %.not2.i, label %._crit_edge.i, label %.lr.ph.i

.lr.ph.i:                                         ; preds = %.preheader.i
  %26 = getelementptr inbounds nuw i8, ptr %.val, i64 40
  br label %27

27:                                               ; preds = %cf_hc_baller_reset.exit.i, %.lr.ph.i
  %28 = phi i64 [ %25, %.lr.ph.i ], [ %33, %cf_hc_baller_reset.exit.i ]
  %.01.i = phi i64 [ 0, %.lr.ph.i ], [ %36, %cf_hc_baller_reset.exit.i ]
  %29 = getelementptr inbounds nuw [2 x %struct.cf_hc_baller], ptr %26, i64 0, i64 %.01.i
  %30 = getelementptr inbounds nuw i8, ptr %29, i64 8
  %31 = load ptr, ptr %30, align 8, !tbaa !86
  %.not.i.i = icmp eq ptr %31, null
  br i1 %.not.i.i, label %cf_hc_baller_reset.exit.i, label %32

32:                                               ; preds = %27
  tail call void @Curl_conn_cf_close(ptr noundef nonnull %31, ptr noundef %1) #4
  tail call void @Curl_conn_cf_discard_chain(ptr noundef nonnull %30, ptr noundef %1) #4
  store ptr null, ptr %30, align 8, !tbaa !86
  %.pre.i = load i64, ptr %24, align 8, !tbaa !84
  br label %cf_hc_baller_reset.exit.i

cf_hc_baller_reset.exit.i:                        ; preds = %32, %27
  %33 = phi i64 [ %28, %27 ], [ %.pre.i, %32 ]
  %34 = getelementptr inbounds nuw i8, ptr %29, i64 16
  store i32 0, ptr %34, align 8, !tbaa !88
  %35 = getelementptr inbounds nuw i8, ptr %29, i64 40
  store i32 -1, ptr %35, align 8, !tbaa !89
  %36 = add nuw i64 %.01.i, 1
  %37 = icmp ult i64 %36, %33
  br i1 %37, label %27, label %._crit_edge.i, !llvm.loop !90

._crit_edge.i:                                    ; preds = %cf_hc_baller_reset.exit.i, %.preheader.i
  store i32 0, ptr %.val, align 8, !tbaa !92
  %38 = getelementptr inbounds nuw i8, ptr %.val, i64 32
  store i32 0, ptr %38, align 8, !tbaa !93
  %39 = getelementptr inbounds nuw i8, ptr %1, i64 2536
  %40 = load i32, ptr %39, align 8, !tbaa !94
  %41 = getelementptr inbounds nuw i8, ptr %.val, i64 164
  store i32 %40, ptr %41, align 4, !tbaa !95
  %42 = lshr i32 %40, 1
  %43 = getelementptr inbounds nuw i8, ptr %.val, i64 160
  store i32 %42, ptr %43, align 8, !tbaa !96
  br label %cf_hc_reset.exit

cf_hc_reset.exit:                                 ; preds = %22, %._crit_edge.i
  %44 = getelementptr inbounds nuw i8, ptr %0, i64 36
  %45 = load i8, ptr %44, align 4
  %46 = and i8 %45, -2
  store i8 %46, ptr %44, align 4
  %47 = getelementptr inbounds nuw i8, ptr %0, i64 8
  %48 = load ptr, ptr %47, align 8, !tbaa !112
  %.not22 = icmp eq ptr %48, null
  br i1 %.not22, label %53, label %49

49:                                               ; preds = %cf_hc_reset.exit
  %50 = load ptr, ptr %48, align 8, !tbaa !81
  %51 = getelementptr inbounds nuw i8, ptr %50, i64 32
  %52 = load ptr, ptr %51, align 8, !tbaa !121
  tail call void %52(ptr noundef nonnull %48, ptr noundef %1) #4
  tail call void @Curl_conn_cf_discard_chain(ptr noundef nonnull %47, ptr noundef %1) #4
  br label %53

53:                                               ; preds = %49, %cf_hc_reset.exit
  ret void
}